; Function Attrs: mustprogress nofree norecurse nosync nounwind willreturn memory(argmem: write) uwtable
define hidden void @_ZN4cvc58internal6theory18NoOpTheoryRewriterC2EPNS0_11NodeManagerENS1_8TheoryIdE(ptr noundef nonnull align 8 dereferenceable(68) initializes((8, 16), (24, 28), (32, 40)) %0, ptr noundef %1, i32 noundef %2) unnamed_addr #10 align 2 personality ptr @__gxx_personality_v0 {
  %4 = getelementptr inbounds nuw i8, ptr %0, i64 8
  store ptr %1, ptr %4, align 8, !tbaa !51
  %5 = getelementptr inbounds nuw i8, ptr %0, i64 24
  store i32 0, ptr %5, align 8, !tbaa !59
  %6 = getelementptr inbounds nuw i8, ptr %0, i64 32
  store ptr null, ptr %6, align 8, !tbaa !32
  %7 = getelementptr inbounds nuw i8, ptr %0, i64 40
  store ptr %5, ptr %7, align 8, !tbaa !60
  %8 = getelementptr inbounds nuw i8, ptr %0, i64 48
  store ptr %5, ptr %8, align 8, !tbaa !61
  %9 = getelementptr inbounds nuw i8, ptr %0, i64 56
  store i64 0, ptr %9, align 8, !tbaa !62
  store ptr getelementptr inbounds nuw inrange(-16, 88) (i8, ptr @_ZTVN4cvc58internal6theory18NoOpTheoryRewriterE, i64 16), ptr %0, align 8, !tbaa !23
  %10 = getelementptr inbounds nuw i8, ptr %0, i64 64
  store i32 %2, ptr %10, align 8, !tbaa !63
  ret void
}